target datalayout = "e-m:e-p270:32:32-p271:32:32-p272:64:64-i64:64-i128:128-f80:128-n8:16:32:64-S128"
target triple = "x86_64-pc-linux-gnu"

%"struct.faiss::InvertedLists.base" = type <{ ptr, i64, i64, i8 }>
%"struct.faiss::HStackInvertedLists" = type { %"struct.faiss::ReadOnlyInvertedLists.base", %"class.std::vector.25" }
%"struct.faiss::ReadOnlyInvertedLists.base" = type { %"struct.faiss::InvertedLists.base" }
%"class.std::vector.25" = type { %"struct.std::_Vector_base.26" }
%"struct.std::_Vector_base.26" = type { %"struct.std::_Vector_base<const faiss::InvertedLists *, std::allocator<const faiss::InvertedLists *>>::_Vector_impl" }
%"struct.std::_Vector_base<const faiss::InvertedLists *, std::allocator<const faiss::InvertedLists *>>::_Vector_impl" = type { %"struct.std::_Vector_base<const faiss::InvertedLists *, std::allocator<const faiss::InvertedLists *>>::_Vector_impl_data" }
%"struct.std::_Vector_base<const faiss::InvertedLists *, std::allocator<const faiss::InvertedLists *>>::_Vector_impl_data" = type { ptr, ptr, ptr }

; Function Attrs: mustprogress nounwind uwtable
define linkonce_odr noundef nonnull align 8 dereferenceable(8) ptr @_ZNKSt6vectorIPKN5faiss13InvertedListsESaIS3_EEixEm(ptr noundef nonnull align 8 dereferenceable(24) %0, i64 noundef %1) #1 comdat align 2 {
  %3 = alloca ptr, align 8
  %4 = alloca i64, align 8
  store ptr %0, ptr %3, align 8, !tbaa !249
  store i64 %1, ptr %4, align 8, !tbaa !11
  %5 = load ptr, ptr %3, align 8
  %6 = getelementptr inbounds nuw %"struct.std::_Vector_base.26", ptr %5, i32 0, i32 0
  %7 = getelementptr inbounds nuw %"struct.std::_Vector_base<const faiss::InvertedLists *, std::allocator<const faiss::InvertedLists *>>::_Vector_impl_data", ptr %6, i32 0, i32 0
  %8 = load ptr, ptr %7, align 8, !tbaa !254
  %9 = load i64, ptr %4, align 8, !tbaa !11
  %10 = getelementptr inbounds nuw ptr, ptr %8, i64 %9
  ret ptr %10
}

; Function Attrs: mustprogress nounwind uwtable
define linkonce_odr noundef i64 @_ZNKSt6vectorIPKN5faiss13InvertedListsESaIS3_EE4sizeEv(ptr noundef nonnull align 8 dereferenceable(24) %0) #1 comdat align 2 {
  %2 = alloca ptr, align 8
  store ptr %0, ptr %2, align 8, !tbaa !249
  %3 = load ptr, ptr %2, align 8
  %4 = getelementptr inbounds nuw %"struct.std::_Vector_base.26", ptr %3, i32 0, i32 0
  %5 = getelementptr inbounds nuw %"struct.std::_Vector_base<const faiss::InvertedLists *, std::allocator<const faiss::InvertedLists *>>::_Vector_impl_data", ptr %4, i32 0, i32 1
  %6 = load ptr, ptr %5, align 8, !tbaa !251
  %7 = getelementptr inbounds nuw %"struct.std::_Vector_base.26", ptr %3, i32 0, i32 0
  %8 = getelementptr inbounds nuw %"struct.std::_Vector_base<const faiss::InvertedLists *, std::allocator<const faiss::InvertedLists *>>::_Vector_impl_data", ptr %7, i32 0, i32 0
  %9 = load ptr, ptr %8, align 8, !tbaa !254
  %10 = ptrtoint ptr %6 to i64
  %11 = ptrtoint ptr %9 to i64
  %12 = sub i64 %10, %11
  %13 = sdiv exact i64 %12, 8
  ret i64 %13
}

; Function Attrs: mustprogress uwtable
define void @_ZNK5faiss19HStackInvertedLists14prefetch_listsEPKli(ptr noundef nonnull align 8 dereferenceable(56) %0, ptr noundef %1, i32 noundef %2) unnamed_addr #2 align 2 {
  %4 = alloca ptr, align 8
  %5 = alloca ptr, align 8
  %6 = alloca i32, align 4
  %7 = alloca i32, align 4
  %8 = alloca ptr, align 8
  store ptr %0, ptr %4, align 8, !tbaa !35
  store ptr %1, ptr %5, align 8, !tbaa !15
  store i32 %2, ptr %6, align 4, !tbaa !22
  %9 = load ptr, ptr %4, align 8
  call void @llvm.lifetime.start.p0(i64 4, ptr %7) #6
  store i32 0, ptr %7, align 4, !tbaa !22
  br label %10

10:                                               ; preds = %29, %3
  %11 = load i32, ptr %7, align 4, !tbaa !22
  %12 = sext i32 %11 to i64
  %13 = getelementptr inbounds nuw %"struct.faiss::HStackInvertedLists", ptr %9, i32 0, i32 1
  %14 = call noundef i64 @_ZNKSt6vectorIPKN5faiss13InvertedListsESaIS3_EE4sizeEv(ptr noundef nonnull align 8 dereferenceable(24) %13) #6
  %15 = icmp ult i64 %12, %14
  br i1 %15, label %17, label %16

16:                                               ; preds = %10
  call void @llvm.lifetime.end.p0(i64 4, ptr %7) #6
  br label %32

17:                                               ; preds = %10
  call void @llvm.lifetime.start.p0(i64 8, ptr %8) #6
  %18 = getelementptr inbounds nuw %"struct.faiss::HStackInvertedLists", ptr %9, i32 0, i32 1
  %19 = load i32, ptr %7, align 4, !tbaa !22
  %20 = sext i32 %19 to i64
  %21 = call noundef nonnull align 8 dereferenceable(8) ptr @_ZNKSt6vectorIPKN5faiss13InvertedListsESaIS3_EEixEm(ptr noundef nonnull align 8 dereferenceable(24) %18, i64 noundef %20) #6
  %22 = load ptr, ptr %21, align 8, !tbaa !9
  store ptr %22, ptr %8, align 8, !tbaa !9
  %23 = load ptr, ptr %8, align 8, !tbaa !9
  %24 = load ptr, ptr %5, align 8, !tbaa !15
  %25 = load i32, ptr %6, align 4, !tbaa !22
  %26 = load ptr, ptr %23, align 8, !tbaa !17
  %27 = getelementptr inbounds ptr, ptr %26, i64 9
  %28 = load ptr, ptr %27, align 8
  call void %28(ptr noundef nonnull align 8 dereferenceable(25) %23, ptr noundef %24, i32 noundef %25)
  call void @llvm.lifetime.end.p0(i64 8, ptr %8) #6
  br label %29

29:                                               ; preds = %17
  %30 = load i32, ptr %7, align 4, !tbaa !22
  %31 = add nsw i32 %30, 1
  store i32 %31, ptr %7, align 4, !tbaa !22
  br label %10, !llvm.loop !42

32:                                               ; preds = %16
  ret void
}