; Function Attrs: mustprogress uwtable
define void @_ZNK5faiss19HStackInvertedLists14prefetch_listsEPKli(ptr noundef nonnull readonly align 8 captures(none) dereferenceable(56) %0, ptr noundef %1, i32 noundef %2) unnamed_addr #2 align 2 {
  %4 = getelementptr inbounds nuw i8, ptr %0, i64 32
  %5 = getelementptr inbounds nuw i8, ptr %0, i64 40
  %6 = load ptr, ptr %5, align 8, !tbaa !57
  %7 = load ptr, ptr %4, align 8, !tbaa !53
  %.not = icmp eq ptr %6, %7
  br i1 %.not, label %._crit_edge, label %.lr.ph

._crit_edge:                                      ; preds = %.lr.ph, %3
  ret void

.lr.ph:                                           ; preds = %3, %.lr.ph
  %indvars.iv = phi i64 [ %indvars.iv.next, %.lr.ph ], [ 0, %3 ]
  %8 = phi ptr [ %15, %.lr.ph ], [ %7, %3 ]
  %9 = getelementptr inbounds nuw ptr, ptr %8, i64 %indvars.iv
  %10 = load ptr, ptr %9, align 8, !tbaa !58
  %11 = load ptr, ptr %10, align 8, !tbaa !4
  %12 = getelementptr inbounds nuw i8, ptr %11, i64 72
  %13 = load ptr, ptr %12, align 8
  tail call void %13(ptr noundef nonnull align 8 dereferenceable(25) %10, ptr noundef %1, i32 noundef %2)
  %indvars.iv.next = add nuw nsw i64 %indvars.iv, 1
  %14 = load ptr, ptr %5, align 8, !tbaa !57
  %15 = load ptr, ptr %4, align 8, !tbaa !53
  %16 = ptrtoint ptr %14 to i64
  %17 = ptrtoint ptr %15 to i64
  %18 = sub i64 %16, %17
  %19 = ashr exact i64 %18, 3
  %20 = icmp ugt i64 %19, %indvars.iv.next
  br i1 %20, label %.lr.ph, label %._crit_edge, !llvm.loop !64
}